target datalayout = "e-m:e-p270:32:32-p271:32:32-p272:64:64-i64:64-i128:128-f80:128-n8:16:32:64-S128"
target triple = "x86_64-pc-linux-gnu"

%struct.DdNode = type { i32, i32, ptr, %union.anon, i64 }
%union.anon = type { %struct.DdChildren }
%struct.DdChildren = type { ptr, ptr }
%struct.DdManager = type { %struct.DdNode, ptr, ptr, ptr, ptr, ptr, ptr, ptr, i32, i32, double, double, double, i32, i32, i32, i32, i32, i32, ptr, ptr, %struct.DdSubtable, i32, i32, i32, i32, i32, i32, i32, double, i32, i32, i32, ptr, i64, double, i32, ptr, ptr, ptr, ptr, ptr, ptr, ptr, i32, ptr, ptr, ptr, ptr, ptr, ptr, i32, i32, i32, double, i32, i32, i32, i32, double, double, i32, i32, i32, i32, i32, i32, i32, i32, i32, ptr, ptr, i32, i32, i32, i32, i32, i32, ptr, ptr, ptr, ptr, ptr, ptr, ptr, ptr, i32, i64, i64, i64, i32, i64, i64, double, double, double, double, double, double, i32, ptr, ptr, i64 }
%struct.DdSubtable = type { ptr, i32, i32, i32, i32, i32, i32, i32, i32, i32, i32, i32 }

; Function Attrs: nounwind uwtable
define internal ptr @addBddDoThreshold(ptr noundef %0, ptr noundef %1, ptr noundef %2) #0 {
  %4 = alloca ptr, align 8
  %5 = alloca ptr, align 8
  %6 = alloca ptr, align 8
  %7 = alloca ptr, align 8
  %8 = alloca ptr, align 8
  %9 = alloca ptr, align 8
  %10 = alloca ptr, align 8
  %11 = alloca ptr, align 8
  %12 = alloca ptr, align 8
  %13 = alloca i32, align 4
  %14 = alloca i32, align 4
  store ptr %0, ptr %5, align 8, !tbaa !3
  store ptr %1, ptr %6, align 8, !tbaa !8
  store ptr %2, ptr %7, align 8, !tbaa !8
  call void @llvm.lifetime.start.p0(i64 8, ptr %8) #5
  call void @llvm.lifetime.start.p0(i64 8, ptr %9) #5
  call void @llvm.lifetime.start.p0(i64 8, ptr %10) #5
  call void @llvm.lifetime.start.p0(i64 8, ptr %11) #5
  call void @llvm.lifetime.start.p0(i64 8, ptr %12) #5
  call void @llvm.lifetime.start.p0(i64 4, ptr %13) #5
  %15 = load ptr, ptr %6, align 8, !tbaa !8
  %16 = getelementptr inbounds nuw %struct.DdNode, ptr %15, i32 0, i32 0
  %17 = load i32, ptr %16, align 8, !tbaa !31
  %18 = icmp eq i32 %17, 2147483647
  br i1 %18, label %19, label %35

19:                                               ; preds = %3
  %20 = load ptr, ptr %5, align 8, !tbaa !3
  %21 = getelementptr inbounds nuw %struct.DdManager, ptr %20, i32 0, i32 1
  %22 = load ptr, ptr %21, align 8, !tbaa !32
  %23 = ptrtoint ptr %22 to i64
  %24 = load ptr, ptr %6, align 8, !tbaa !8
  %25 = getelementptr inbounds nuw %struct.DdNode, ptr %24, i32 0, i32 3
  %26 = load double, ptr %25, align 8, !tbaa !33
  %27 = load ptr, ptr %7, align 8, !tbaa !8
  %28 = getelementptr inbounds nuw %struct.DdNode, ptr %27, i32 0, i32 3
  %29 = load double, ptr %28, align 8, !tbaa !33
  %30 = fcmp olt double %26, %29
  %31 = zext i1 %30 to i32
  %32 = sext i32 %31 to i64
  %33 = xor i64 %23, %32
  %34 = inttoptr i64 %33 to ptr
  store ptr %34, ptr %4, align 8
  store i32 1, ptr %14, align 4
  br label %170

35:                                               ; preds = %3
  %36 = load ptr, ptr %5, align 8, !tbaa !3
  %37 = load ptr, ptr %6, align 8, !tbaa !8
  %38 = load ptr, ptr %7, align 8, !tbaa !8
  %39 = call ptr @cuddCacheLookup2(ptr noundef %36, ptr noundef @addBddDoThreshold, ptr noundef %37, ptr noundef %38)
  store ptr %39, ptr %8, align 8, !tbaa !8
  %40 = load ptr, ptr %8, align 8, !tbaa !8
  %41 = icmp ne ptr %40, null
  br i1 %41, label %42, label %44

42:                                               ; preds = %35
  %43 = load ptr, ptr %8, align 8, !tbaa !8
  store ptr %43, ptr %4, align 8
  store i32 1, ptr %14, align 4
  br label %170

44:                                               ; preds = %35
  %45 = load ptr, ptr %6, align 8, !tbaa !8
  %46 = getelementptr inbounds nuw %struct.DdNode, ptr %45, i32 0, i32 0
  %47 = load i32, ptr %46, align 8, !tbaa !31
  store i32 %47, ptr %13, align 4, !tbaa !34
  %48 = load ptr, ptr %6, align 8, !tbaa !8
  %49 = getelementptr inbounds nuw %struct.DdNode, ptr %48, i32 0, i32 3
  %50 = getelementptr inbounds nuw %struct.DdChildren, ptr %49, i32 0, i32 0
  %51 = load ptr, ptr %50, align 8, !tbaa !33
  store ptr %51, ptr %11, align 8, !tbaa !8
  %52 = load ptr, ptr %6, align 8, !tbaa !8
  %53 = getelementptr inbounds nuw %struct.DdNode, ptr %52, i32 0, i32 3
  %54 = getelementptr inbounds nuw %struct.DdChildren, ptr %53, i32 0, i32 1
  %55 = load ptr, ptr %54, align 8, !tbaa !33
  store ptr %55, ptr %12, align 8, !tbaa !8
  %56 = load ptr, ptr %5, align 8, !tbaa !3
  %57 = load ptr, ptr %11, align 8, !tbaa !8
  %58 = load ptr, ptr %7, align 8, !tbaa !8
  %59 = call ptr @addBddDoThreshold(ptr noundef %56, ptr noundef %57, ptr noundef %58)
  store ptr %59, ptr %9, align 8, !tbaa !8
  %60 = load ptr, ptr %9, align 8, !tbaa !8
  %61 = icmp eq ptr %60, null
  br i1 %61, label %62, label %63

62:                                               ; preds = %44
  store ptr null, ptr %4, align 8
  store i32 1, ptr %14, align 4
  br label %170

63:                                               ; preds = %44
  %64 = load ptr, ptr %9, align 8, !tbaa !8
  %65 = ptrtoint ptr %64 to i64
  %66 = and i64 %65, -2
  %67 = inttoptr i64 %66 to ptr
  %68 = getelementptr inbounds nuw %struct.DdNode, ptr %67, i32 0, i32 1
  %69 = load i32, ptr %68, align 4, !tbaa !12
  %70 = add i32 %69, 1
  store i32 %70, ptr %68, align 4, !tbaa !12
  %71 = load ptr, ptr %5, align 8, !tbaa !3
  %72 = load ptr, ptr %12, align 8, !tbaa !8
  %73 = load ptr, ptr %7, align 8, !tbaa !8
  %74 = call ptr @addBddDoThreshold(ptr noundef %71, ptr noundef %72, ptr noundef %73)
  store ptr %74, ptr %10, align 8, !tbaa !8
  %75 = load ptr, ptr %10, align 8, !tbaa !8
  %76 = icmp eq ptr %75, null
  br i1 %76, label %77, label %80

77:                                               ; preds = %63
  %78 = load ptr, ptr %5, align 8, !tbaa !3
  %79 = load ptr, ptr %9, align 8, !tbaa !8
  call void @Cudd_RecursiveDeref(ptr noundef %78, ptr noundef %79)
  store ptr null, ptr %4, align 8
  store i32 1, ptr %14, align 4
  br label %170

80:                                               ; preds = %63
  %81 = load ptr, ptr %10, align 8, !tbaa !8
  %82 = ptrtoint ptr %81 to i64
  %83 = and i64 %82, -2
  %84 = inttoptr i64 %83 to ptr
  %85 = getelementptr inbounds nuw %struct.DdNode, ptr %84, i32 0, i32 1
  %86 = load i32, ptr %85, align 4, !tbaa !12
  %87 = add i32 %86, 1
  store i32 %87, ptr %85, align 4, !tbaa !12
  %88 = load ptr, ptr %9, align 8, !tbaa !8
  %89 = ptrtoint ptr %88 to i64
  %90 = and i64 %89, 1
  %91 = trunc i64 %90 to i32
  %92 = icmp ne i32 %91, 0
  br i1 %92, label %93, label %128

93:                                               ; preds = %80
  %94 = load ptr, ptr %9, align 8, !tbaa !8
  %95 = load ptr, ptr %10, align 8, !tbaa !8
  %96 = icmp eq ptr %94, %95
  br i1 %96, label %97, label %102

97:                                               ; preds = %93
  %98 = load ptr, ptr %9, align 8, !tbaa !8
  %99 = ptrtoint ptr %98 to i64
  %100 = xor i64 %99, 1
  %101 = inttoptr i64 %100 to ptr
  br label %114

102:                                              ; preds = %93
  %103 = load ptr, ptr %5, align 8, !tbaa !3
  %104 = load i32, ptr %13, align 4, !tbaa !34
  %105 = load ptr, ptr %9, align 8, !tbaa !8
  %106 = ptrtoint ptr %105 to i64
  %107 = xor i64 %106, 1
  %108 = inttoptr i64 %107 to ptr
  %109 = load ptr, ptr %10, align 8, !tbaa !8
  %110 = ptrtoint ptr %109 to i64
  %111 = xor i64 %110, 1
  %112 = inttoptr i64 %111 to ptr
  %113 = call ptr @cuddUniqueInter(ptr noundef %103, i32 noundef %104, ptr noundef %108, ptr noundef %112)
  br label %114

114:                                              ; preds = %102, %97
  %115 = phi ptr [ %101, %97 ], [ %113, %102 ]
  store ptr %115, ptr %8, align 8, !tbaa !8
  %116 = load ptr, ptr %8, align 8, !tbaa !8
  %117 = icmp eq ptr %116, null
  br i1 %117, label %118, label %123

118:                                              ; preds = %114
  %119 = load ptr, ptr %5, align 8, !tbaa !3
  %120 = load ptr, ptr %9, align 8, !tbaa !8
  call void @Cudd_RecursiveDeref(ptr noundef %119, ptr noundef %120)
  %121 = load ptr, ptr %5, align 8, !tbaa !3
  %122 = load ptr, ptr %10, align 8, !tbaa !8
  call void @Cudd_RecursiveDeref(ptr noundef %121, ptr noundef %122)
  store ptr null, ptr %4, align 8
  store i32 1, ptr %14, align 4
  br label %170

123:                                              ; preds = %114
  %124 = load ptr, ptr %8, align 8, !tbaa !8
  %125 = ptrtoint ptr %124 to i64
  %126 = xor i64 %125, 1
  %127 = inttoptr i64 %126 to ptr
  store ptr %127, ptr %8, align 8, !tbaa !8
  br label %150

128:                                              ; preds = %80
  %129 = load ptr, ptr %9, align 8, !tbaa !8
  %130 = load ptr, ptr %10, align 8, !tbaa !8
  %131 = icmp eq ptr %129, %130
  br i1 %131, label %132, label %134

132:                                              ; preds = %128
  %133 = load ptr, ptr %9, align 8, !tbaa !8
  br label %140

134:                                              ; preds = %128
  %135 = load ptr, ptr %5, align 8, !tbaa !3
  %136 = load i32, ptr %13, align 4, !tbaa !34
  %137 = load ptr, ptr %9, align 8, !tbaa !8
  %138 = load ptr, ptr %10, align 8, !tbaa !8
  %139 = call ptr @cuddUniqueInter(ptr noundef %135, i32 noundef %136, ptr noundef %137, ptr noundef %138)
  br label %140

140:                                              ; preds = %134, %132
  %141 = phi ptr [ %133, %132 ], [ %139, %134 ]
  store ptr %141, ptr %8, align 8, !tbaa !8
  %142 = load ptr, ptr %8, align 8, !tbaa !8
  %143 = icmp eq ptr %142, null
  br i1 %143, label %144, label %149

144:                                              ; preds = %140
  %145 = load ptr, ptr %5, align 8, !tbaa !3
  %146 = load ptr, ptr %9, align 8, !tbaa !8
  call void @Cudd_RecursiveDeref(ptr noundef %145, ptr noundef %146)
  %147 = load ptr, ptr %5, align 8, !tbaa !3
  %148 = load ptr, ptr %10, align 8, !tbaa !8
  call void @Cudd_RecursiveDeref(ptr noundef %147, ptr noundef %148)
  store ptr null, ptr %4, align 8
  store i32 1, ptr %14, align 4
  br label %170

149:                                              ; preds = %140
  br label %150

150:                                              ; preds = %149, %123
  %151 = load ptr, ptr %9, align 8, !tbaa !8
  %152 = ptrtoint ptr %151 to i64
  %153 = and i64 %152, -2
  %154 = inttoptr i64 %153 to ptr
  %155 = getelementptr inbounds nuw %struct.DdNode, ptr %154, i32 0, i32 1
  %156 = load i32, ptr %155, align 4, !tbaa !12
  %157 = add i32 %156, -1
  store i32 %157, ptr %155, align 4, !tbaa !12
  %158 = load ptr, ptr %10, align 8, !tbaa !8
  %159 = ptrtoint ptr %158 to i64
  %160 = and i64 %159, -2
  %161 = inttoptr i64 %160 to ptr
  %162 = getelementptr inbounds nuw %struct.DdNode, ptr %161, i32 0, i32 1
  %163 = load i32, ptr %162, align 4, !tbaa !12
  %164 = add i32 %163, -1
  store i32 %164, ptr %162, align 4, !tbaa !12
  %165 = load ptr, ptr %5, align 8, !tbaa !3
  %166 = load ptr, ptr %6, align 8, !tbaa !8
  %167 = load ptr, ptr %7, align 8, !tbaa !8
  %168 = load ptr, ptr %8, align 8, !tbaa !8
  call void @cuddCacheInsert2(ptr noundef %165, ptr noundef @addBddDoThreshold, ptr noundef %166, ptr noundef %167, ptr noundef %168)
  %169 = load ptr, ptr %8, align 8, !tbaa !8
  store ptr %169, ptr %4, align 8
  store i32 1, ptr %14, align 4
  br label %170

170:                                              ; preds = %150, %144, %118, %77, %62, %42, %19
  call void @llvm.lifetime.end.p0(i64 4, ptr %13) #5
  call void @llvm.lifetime.end.p0(i64 8, ptr %12) #5
  call void @llvm.lifetime.end.p0(i64 8, ptr %11) #5
  call void @llvm.lifetime.end.p0(i64 8, ptr %10) #5
  call void @llvm.lifetime.end.p0(i64 8, ptr %9) #5
  call void @llvm.lifetime.end.p0(i64 8, ptr %8) #5
  %171 = load ptr, ptr %4, align 8
  ret ptr %171
}